target datalayout = "e-m:e-p270:32:32-p271:32:32-p272:64:64-i64:64-i128:128-f80:128-n8:16:32:64-S128"
target triple = "x86_64-pc-linux-gnu"

%struct.typenode = type { i16, i64, ptr, ptr, ptr, ptr, ptr, ptr, ptr, ptr, ptr }
%struct.typearg = type { ptr, ptr }

; Function Attrs: nounwind uwtable
define internal zeroext i1 @Check_Char(ptr noundef %0, i32 noundef %1, ptr noundef %2) #0 {
  %4 = alloca i1, align 1
  %5 = alloca ptr, align 8
  %6 = alloca i32, align 4
  %7 = alloca ptr, align 8
  store ptr %0, ptr %5, align 8, !tbaa !69
  store i32 %1, ptr %6, align 4, !tbaa !35
  store ptr %2, ptr %7, align 8, !tbaa !70
  %8 = load ptr, ptr %5, align 8, !tbaa !69
  %9 = icmp ne ptr %8, null
  br i1 %9, label %10, label %51

10:                                               ; preds = %3
  %11 = load ptr, ptr %5, align 8, !tbaa !69
  %12 = getelementptr inbounds nuw %struct.typenode, ptr %11, i32 0, i32 0
  %13 = load i16, ptr %12, align 8, !tbaa !73
  %14 = zext i16 %13 to i32
  %15 = and i32 %14, 1
  %16 = icmp ne i32 %15, 0
  br i1 %16, label %17, label %37

17:                                               ; preds = %10
  %18 = load ptr, ptr %5, align 8, !tbaa !69
  %19 = getelementptr inbounds nuw %struct.typenode, ptr %18, i32 0, i32 2
  %20 = load ptr, ptr %19, align 8, !tbaa !76
  %21 = load i32, ptr %6, align 4, !tbaa !35
  %22 = load ptr, ptr %7, align 8, !tbaa !70
  %23 = getelementptr inbounds nuw %struct.typearg, ptr %22, i32 0, i32 0
  %24 = load ptr, ptr %23, align 8, !tbaa !77
  %25 = call zeroext i1 @Check_Char(ptr noundef %20, i32 noundef %21, ptr noundef %24)
  br i1 %25, label %35, label %26

26:                                               ; preds = %17
  %27 = load ptr, ptr %5, align 8, !tbaa !69
  %28 = getelementptr inbounds nuw %struct.typenode, ptr %27, i32 0, i32 3
  %29 = load ptr, ptr %28, align 8, !tbaa !79
  %30 = load i32, ptr %6, align 4, !tbaa !35
  %31 = load ptr, ptr %7, align 8, !tbaa !70
  %32 = getelementptr inbounds nuw %struct.typearg, ptr %31, i32 0, i32 1
  %33 = load ptr, ptr %32, align 8, !tbaa !80
  %34 = call zeroext i1 @Check_Char(ptr noundef %29, i32 noundef %30, ptr noundef %33)
  br label %35

35:                                               ; preds = %26, %17
  %36 = phi i1 [ true, %17 ], [ %34, %26 ]
  store i1 %36, ptr %4, align 1
  br label %65

37:                                               ; preds = %10
  %38 = load ptr, ptr %5, align 8, !tbaa !69
  %39 = getelementptr inbounds nuw %struct.typenode, ptr %38, i32 0, i32 8
  %40 = load ptr, ptr %39, align 8, !tbaa !108
  %41 = icmp ne ptr %40, null
  br i1 %41, label %42, label %49

42:                                               ; preds = %37
  %43 = load ptr, ptr %5, align 8, !tbaa !69
  %44 = getelementptr inbounds nuw %struct.typenode, ptr %43, i32 0, i32 8
  %45 = load ptr, ptr %44, align 8, !tbaa !108
  %46 = load i32, ptr %6, align 4, !tbaa !35
  %47 = load ptr, ptr %7, align 8, !tbaa !70
  %48 = call zeroext i1 %45(i32 noundef %46, ptr noundef %47)
  store i1 %48, ptr %4, align 1
  br label %65

49:                                               ; preds = %37
  br label %50

50:                                               ; preds = %49
  br label %51

51:                                               ; preds = %50, %3
  %52 = call ptr @__ctype_b_loc() #10
  %53 = load ptr, ptr %52, align 8, !tbaa !100
  %54 = load i32, ptr %6, align 4, !tbaa !35
  %55 = trunc i32 %54 to i8
  %56 = zext i8 %55 to i32
  %57 = sext i32 %56 to i64
  %58 = getelementptr inbounds i16, ptr %53, i64 %57
  %59 = load i16, ptr %58, align 2, !tbaa !102
  %60 = zext i16 %59 to i32
  %61 = and i32 %60, 16384
  %62 = icmp ne i32 %61, 0
  %63 = select i1 %62, i32 1, i32 0
  %64 = icmp ne i32 %63, 0
  store i1 %64, ptr %4, align 1
  br label %65

65:                                               ; preds = %51, %42, %35
  %66 = load i1, ptr %4, align 1
  ret i1 %66
}