; Function Attrs: nounwind uwtable
define internal fastcc zeroext i1 @Check_Char(ptr noundef readonly %0, i32 noundef range(i32 -291055, -291056) %1, ptr noundef %2) unnamed_addr #0 {
  %.not24 = icmp eq ptr %0, null
  br i1 %.not24, label %.loopexit, label %.lr.ph

.lr.ph:                                           ; preds = %3, %tailrecurse
  %.tr1826 = phi ptr [ %14, %tailrecurse ], [ %2, %3 ]
  %.tr25 = phi ptr [ %12, %tailrecurse ], [ %0, %3 ]
  %4 = load i16, ptr %.tr25, align 8, !tbaa !68
  %5 = and i16 %4, 1
  %.not15 = icmp eq i16 %5, 0
  br i1 %.not15, label %15, label %6

6:                                                ; preds = %.lr.ph
  %7 = getelementptr inbounds nuw i8, ptr %.tr25, i64 16
  %8 = load ptr, ptr %7, align 8, !tbaa !71
  %9 = load ptr, ptr %.tr1826, align 8, !tbaa !72
  %10 = tail call fastcc zeroext i1 @Check_Char(ptr noundef %8, i32 noundef %1, ptr noundef %9)
  br i1 %10, label %.loopexit19, label %tailrecurse

tailrecurse:                                      ; preds = %6
  %11 = getelementptr inbounds nuw i8, ptr %.tr25, i64 24
  %12 = load ptr, ptr %11, align 8, !tbaa !75
  %13 = getelementptr inbounds nuw i8, ptr %.tr1826, i64 8
  %14 = load ptr, ptr %13, align 8, !tbaa !76
  %.not = icmp eq ptr %12, null
  br i1 %.not, label %.loopexit, label %.lr.ph

15:                                               ; preds = %.lr.ph
  %16 = getelementptr inbounds nuw i8, ptr %.tr25, i64 64
  %17 = load ptr, ptr %16, align 8, !tbaa !101
  %.not16 = icmp eq ptr %17, null
  br i1 %.not16, label %.loopexit, label %18

18:                                               ; preds = %15
  %19 = tail call zeroext i1 %17(i32 noundef %1, ptr noundef %.tr1826) #13
  br label %.loopexit19

.loopexit:                                        ; preds = %tailrecurse, %3, %15
  %20 = tail call ptr @__ctype_b_loc() #14
  %21 = load ptr, ptr %20, align 8, !tbaa !93
  %22 = and i32 %1, 255
  %23 = zext nneg i32 %22 to i64
  %24 = getelementptr inbounds nuw i16, ptr %21, i64 %23
  %25 = load i16, ptr %24, align 2, !tbaa !95
  %26 = and i16 %25, 16384
  %27 = icmp ne i16 %26, 0
  br label %.loopexit19

.loopexit19:                                      ; preds = %6, %.loopexit, %18
  %.0 = phi i1 [ %19, %18 ], [ %27, %.loopexit ], [ true, %6 ]
  ret i1 %.0
}